; Function Attrs: mustprogress nofree norecurse nosync nounwind willreturn memory(argmem: read) uwtable
define dso_local noundef zeroext i1 @is_full_path(ptr noundef readonly captures(address_is_null) %0) local_unnamed_addr #6 {
  %.not = icmp eq ptr %0, null
  br i1 %.not, label %5, label %2

2:                                                ; preds = %1
  %3 = load i8, ptr %0, align 1
  %4 = icmp eq i8 %3, 47
  br i1 %4, label %6, label %5

5:                                                ; preds = %2, %1
  br label %6

6:                                                ; preds = %2, %5
  %.0 = phi i1 [ false, %5 ], [ true, %2 ]
  ret i1 %.0
}